; ModuleID = 'source-C-CXX/0/1639.cpp'
source_filename = "source-C-CXX/0/1639.cpp"
target datalayout = "e-m:e-p270:32:32-p271:32:32-p272:64:64-i64:64-f80:128-n8:16:32:64-S128"
target triple = "x86_64-pc-linux-gnu"

%"class.std::ios_base::Init" = type { i8 }
%"class.std::basic_istream" = type { i32 (...)**, i64, %"class.std::basic_ios" }
%"class.std::basic_ios" = type { %"class.std::ios_base", %"class.std::basic_ostream"*, i8, i8, %"class.std::basic_streambuf"*, %"class.std::ctype"*, %"class.std::num_put"*, %"class.std::num_get"* }
%"class.std::ios_base" = type { i32 (...)**, i64, i64, i32, i32, i32, %"struct.std::ios_base::_Callback_list"*, %"struct.std::ios_base::_Words", [8 x %"struct.std::ios_base::_Words"], i32, %"struct.std::ios_base::_Words"*, %"class.std::locale" }
%"struct.std::ios_base::_Callback_list" = type { %"struct.std::ios_base::_Callback_list"*, void (i32, %"class.std::ios_base"*, i32)*, i32, i32 }
%"struct.std::ios_base::_Words" = type { i8*, i64 }
%"class.std::locale" = type { %"class.std::locale::_Impl"* }
%"class.std::locale::_Impl" = type { i32, %"class.std::locale::facet"**, i64, %"class.std::locale::facet"**, i8** }
%"class.std::locale::facet" = type <{ i32 (...)**, i32, [4 x i8] }>
%"class.std::basic_ostream" = type { i32 (...)**, %"class.std::basic_ios" }
%"class.std::basic_streambuf" = type { i32 (...)**, i8*, i8*, i8*, i8*, i8*, i8*, %"class.std::locale" }
%"class.std::ctype" = type <{ %"class.std::locale::facet.base", [4 x i8], %struct.__locale_struct*, i8, [7 x i8], i32*, i32*, i16*, i8, [256 x i8], [256 x i8], i8, [6 x i8] }>
%"class.std::locale::facet.base" = type <{ i32 (...)**, i32 }>
%struct.__locale_struct = type { [13 x %struct.__locale_data*], i16*, i32*, i32*, [13 x i8*] }
%struct.__locale_data = type opaque
%"class.std::num_put" = type { %"class.std::locale::facet.base", [4 x i8] }
%"class.std::num_get" = type { %"class.std::locale::facet.base", [4 x i8] }

@_ZStL8__ioinit = internal global %"class.std::ios_base::Init" zeroinitializer, align 1
@__dso_handle = external hidden global i8
@_ZSt3cin = external global %"class.std::basic_istream", align 8
@_ZSt4cout = external global %"class.std::basic_ostream", align 8
@llvm.global_ctors = appending global [1 x { i32, void ()*, i8* }] [{ i32, void ()*, i8* } { i32 65535, void ()* @_GLOBAL__sub_I_1639.cpp, i8* null }]

declare void @_ZNSt8ios_base4InitC1Ev(%"class.std::ios_base::Init"* nonnull align 1 dereferenceable(1)) unnamed_addr #0

; Function Attrs: nounwind
declare void @_ZNSt8ios_base4InitD1Ev(%"class.std::ios_base::Init"* nonnull align 1 dereferenceable(1)) unnamed_addr #1

; Function Attrs: nofree nounwind
declare i32 @__cxa_atexit(void (i8*)*, i8*, i8*) local_unnamed_addr #2

; Function Attrs: mustprogress norecurse sspstrong uwtable
define dso_local i32 @main() local_unnamed_addr #3 {
  %1 = alloca i32, align 4
  %2 = alloca i32, align 4
  %3 = bitcast i32* %1 to i8*
  call void @llvm.lifetime.start.p0i8(i64 4, i8* nonnull %3) #9
  %4 = bitcast i32* %2 to i8*
  call void @llvm.lifetime.start.p0i8(i64 4, i8* nonnull %4) #9
  %5 = call nonnull align 8 dereferenceable(16) %"class.std::basic_istream"* @_ZNSirsERi(%"class.std::basic_istream"* nonnull align 8 dereferenceable(16) @_ZSt3cin, i32* nonnull align 4 dereferenceable(4) %1)
  %6 = load i32, i32* %1, align 4, !tbaa !5
  %7 = icmp slt i32 %6, 1
  br i1 %7, label %46, label %8

8:                                                ; preds = %0, %39
  %9 = phi i32 [ %43, %39 ], [ 1, %0 ]
  %10 = call nonnull align 8 dereferenceable(16) %"class.std::basic_istream"* @_ZNSirsERi(%"class.std::basic_istream"* nonnull align 8 dereferenceable(16) @_ZSt3cin, i32* nonnull align 4 dereferenceable(4) %2)
  %11 = load i32, i32* %2, align 4, !tbaa !5
  %12 = call i32 @_Z1dii(i32 %11, i32 2)
  %13 = call nonnull align 8 dereferenceable(8) %"class.std::basic_ostream"* @_ZNSolsEi(%"class.std::basic_ostream"* nonnull align 8 dereferenceable(8) @_ZSt4cout, i32 %12)
  %14 = bitcast %"class.std::basic_ostream"* %13 to i8**
  %15 = load i8*, i8** %14, align 8, !tbaa !9
  %16 = getelementptr i8, i8* %15, i64 -24
  %17 = bitcast i8* %16 to i64*
  %18 = load i64, i64* %17, align 8
  %19 = bitcast %"class.std::basic_ostream"* %13 to i8*
  %20 = add nsw i64 %18, 240
  %21 = getelementptr inbounds i8, i8* %19, i64 %20
  %22 = bitcast i8* %21 to %"class.std::ctype"**
  %23 = load %"class.std::ctype"*, %"class.std::ctype"** %22, align 8, !tbaa !11
  %24 = icmp eq %"class.std::ctype"* %23, null
  br i1 %24, label %25, label %26

25:                                               ; preds = %8
  call void @_ZSt16__throw_bad_castv() #10
  unreachable

26:                                               ; preds = %8
  %27 = getelementptr inbounds %"class.std::ctype", %"class.std::ctype"* %23, i64 0, i32 8
  %28 = load i8, i8* %27, align 8, !tbaa !15
  %29 = icmp eq i8 %28, 0
  br i1 %29, label %33, label %30

30:                                               ; preds = %26
  %31 = getelementptr inbounds %"class.std::ctype", %"class.std::ctype"* %23, i64 0, i32 9, i64 10
  %32 = load i8, i8* %31, align 1, !tbaa !17
  br label %39

33:                                               ; preds = %26
  call void @_ZNKSt5ctypeIcE13_M_widen_initEv(%"class.std::ctype"* nonnull align 8 dereferenceable(570) %23)
  %34 = bitcast %"class.std::ctype"* %23 to i8 (%"class.std::ctype"*, i8)***
  %35 = load i8 (%"class.std::ctype"*, i8)**, i8 (%"class.std::ctype"*, i8)*** %34, align 8, !tbaa !9
  %36 = getelementptr inbounds i8 (%"class.std::ctype"*, i8)*, i8 (%"class.std::ctype"*, i8)** %35, i64 6
  %37 = load i8 (%"class.std::ctype"*, i8)*, i8 (%"class.std::ctype"*, i8)** %36, align 8
  %38 = call signext i8 %37(%"class.std::ctype"* nonnull align 8 dereferenceable(570) %23, i8 signext 10)
  br label %39

39:                                               ; preds = %30, %33
  %40 = phi i8 [ %32, %30 ], [ %38, %33 ]
  %41 = call nonnull align 8 dereferenceable(8) %"class.std::basic_ostream"* @_ZNSo3putEc(%"class.std::basic_ostream"* nonnull align 8 dereferenceable(8) %13, i8 signext %40)
  %42 = call nonnull align 8 dereferenceable(8) %"class.std::basic_ostream"* @_ZNSo5flushEv(%"class.std::basic_ostream"* nonnull align 8 dereferenceable(8) %41)
  %43 = add nuw nsw i32 %9, 1
  %44 = load i32, i32* %1, align 4, !tbaa !5
  %45 = icmp slt i32 %9, %44
  br i1 %45, label %8, label %46, !llvm.loop !18

46:                                               ; preds = %39, %0
  call void @llvm.lifetime.end.p0i8(i64 4, i8* nonnull %4) #9
  call void @llvm.lifetime.end.p0i8(i64 4, i8* nonnull %3) #9
  ret i32 0
}

; Function Attrs: argmemonly mustprogress nofree nosync nounwind willreturn
declare void @llvm.lifetime.start.p0i8(i64 immarg, i8* nocapture) #4

declare nonnull align 8 dereferenceable(16) %"class.std::basic_istream"* @_ZNSirsERi(%"class.std::basic_istream"* nonnull align 8 dereferenceable(16), i32* nonnull align 4 dereferenceable(4)) local_unnamed_addr #0

declare nonnull align 8 dereferenceable(8) %"class.std::basic_ostream"* @_ZNSolsEi(%"class.std::basic_ostream"* nonnull align 8 dereferenceable(8), i32) local_unnamed_addr #0

; Function Attrs: mustprogress nofree nounwind sspstrong uwtable
define dso_local i32 @_Z1dii(i32 %0, i32 %1) local_unnamed_addr #5 {
  switch i32 %0, label %3 [
    i32 1, label %24
    i32 2, label %8
  ]

3:                                                ; preds = %2
  %4 = sitofp i32 %0 to double
  %5 = tail call double @sqrt(double %4) #9
  %6 = fptosi double %5 to i32
  %7 = icmp slt i32 %6, %1
  br i1 %7, label %24, label %9

8:                                                ; preds = %2
  br label %24

9:                                                ; preds = %3, %18
  %10 = phi i32 [ %19, %18 ], [ 1, %3 ]
  %11 = phi i32 [ %20, %18 ], [ %1, %3 ]
  %12 = srem i32 %0, %11
  %13 = sdiv i32 %0, %11
  %14 = icmp eq i32 %12, 0
  br i1 %14, label %15, label %18

15:                                               ; preds = %9
  %16 = tail call i32 @_Z1dii(i32 %13, i32 %11)
  %17 = add nsw i32 %16, %10
  br label %18

18:                                               ; preds = %9, %15
  %19 = phi i32 [ %17, %15 ], [ %10, %9 ]
  %20 = add nsw i32 %11, 1
  %21 = tail call double @sqrt(double %4) #9
  %22 = fptosi double %21 to i32
  %23 = icmp slt i32 %11, %22
  br i1 %23, label %9, label %24, !llvm.loop !20

24:                                               ; preds = %18, %3, %2, %8
  %25 = phi i32 [ 1, %8 ], [ 0, %2 ], [ 1, %3 ], [ %19, %18 ]
  ret i32 %25
}

; Function Attrs: argmemonly mustprogress nofree nosync nounwind willreturn
declare void @llvm.lifetime.end.p0i8(i64 immarg, i8* nocapture) #4

; Function Attrs: mustprogress nofree nounwind willreturn
declare double @sqrt(double) local_unnamed_addr #6

declare nonnull align 8 dereferenceable(8) %"class.std::basic_ostream"* @_ZNSo3putEc(%"class.std::basic_ostream"* nonnull align 8 dereferenceable(8), i8 signext) local_unnamed_addr #0

declare nonnull align 8 dereferenceable(8) %"class.std::basic_ostream"* @_ZNSo5flushEv(%"class.std::basic_ostream"* nonnull align 8 dereferenceable(8)) local_unnamed_addr #0

; Function Attrs: noreturn
declare void @_ZSt16__throw_bad_castv() local_unnamed_addr #7

declare void @_ZNKSt5ctypeIcE13_M_widen_initEv(%"class.std::ctype"* nonnull align 8 dereferenceable(570)) local_unnamed_addr #0

; Function Attrs: sspstrong uwtable
define internal void @_GLOBAL__sub_I_1639.cpp() #8 section ".text.startup" {
  tail call void @_ZNSt8ios_base4InitC1Ev(%"class.std::ios_base::Init"* nonnull align 1 dereferenceable(1) @_ZStL8__ioinit)
  %1 = tail call i32 @__cxa_atexit(void (i8*)* bitcast (void (%"class.std::ios_base::Init"*)* @_ZNSt8ios_base4InitD1Ev to void (i8*)*), i8* getelementptr inbounds (%"class.std::ios_base::Init", %"class.std::ios_base::Init"* @_ZStL8__ioinit, i64 0, i32 0), i8* nonnull @__dso_handle) #9
  ret void
}


!llvm.module.flags = !{!0, !1, !2, !3}
!llvm.ident = !{!4}

!0 = !{i32 1, !"wchar_size", i32 4}
!1 = !{i32 7, !"PIC Level", i32 2}
!2 = !{i32 7, !"PIE Level", i32 2}
!3 = !{i32 7, !"uwtable", i32 1}
!4 = !{!"clang version 13.0.0"}
!5 = !{!6, !6, i64 0}
!6 = !{!"int", !7, i64 0}
!7 = !{!"omnipotent char", !8, i64 0}
!8 = !{!"Simple C++ TBAA"}
!9 = !{!10, !10, i64 0}
!10 = !{!"vtable pointer", !8, i64 0}
!11 = !{!12, !13, i64 240}
!12 = !{!"_ZTSSt9basic_iosIcSt11char_traitsIcEE", !13, i64 216, !7, i64 224, !14, i64 225, !13, i64 232, !13, i64 240, !13, i64 248, !13, i64 256}
!13 = !{!"any pointer", !7, i64 0}
!14 = !{!"bool", !7, i64 0}
!15 = !{!16, !7, i64 56}
!16 = !{!"_ZTSSt5ctypeIcE", !13, i64 16, !14, i64 24, !13, i64 32, !13, i64 40, !13, i64 48, !7, i64 56, !7, i64 57, !7, i64 313, !7, i64 569}
!17 = !{!7, !7, i64 0}
!18 = distinct !{!18, !19}
!19 = !{!"llvm.loop.mustprogress"}
!20 = distinct !{!20, !19}
